target datalayout = "e-m:e-p270:32:32-p271:32:32-p272:64:64-i64:64-i128:128-f80:128-n8:16:32:64-S128"
target triple = "x86_64-pc-linux-gnu"

%struct.tMPI_Thread_key_t = type { %struct.tMPI_Atomic, ptr }
%struct.tMPI_Atomic = type { i32, [60 x i8] }
%struct.tmpi_comm_ = type { %struct.tmpi_group_, %struct.tMPI_Barrier_t, ptr, ptr, i32, ptr, ptr, ptr, ptr, %struct.tMPI_Thread_mutex_t, %struct.tMPI_Thread_cond_t, %struct.tMPI_Thread_cond_t, ptr, ptr, ptr, ptr, ptr, ptr, %struct.tMPI_Atomic }
%struct.tmpi_group_ = type { i32, ptr }
%struct.tMPI_Barrier_t = type { %struct.tMPI_Atomic, i32, %struct.tMPI_Atomic }
%struct.tMPI_Thread_mutex_t = type { %struct.tMPI_Atomic, ptr }
%struct.tMPI_Thread_cond_t = type { %struct.tMPI_Atomic, ptr }

@threads = global ptr null, align 8
@id_key = global %struct.tMPI_Thread_key_t zeroinitializer, align 8
@TMPI_COMM_WORLD = external global ptr, align 8
@stderr = external global ptr, align 8
@.str.1 = private unnamed_addr constant [61 x i8] c"tMPI_Abort called on TMPI_COMM_WORLD main with errorcode=%d\0A\00", align 1
@.str.2 = private unnamed_addr constant [52 x i8] c"tMPI_Abort called on main thread with errorcode=%d\0A\00", align 1
@.str.3 = private unnamed_addr constant [51 x i8] c"tMPI_Abort called with error code %d on thread %d\0A\00", align 1

; Function Attrs: mustprogress uwtable
define noundef i32 @_Z14tMPI_Is_masterv() #0 {
  %1 = alloca i32, align 4
  %2 = alloca %struct.tMPI_Thread_key_t, align 8
  %3 = load ptr, ptr @TMPI_COMM_WORLD, align 8, !tbaa !3
  %4 = icmp ne ptr %3, null
  br i1 %4, label %5, label %11

5:                                                ; preds = %0
  %6 = load ptr, ptr @TMPI_COMM_WORLD, align 8, !tbaa !3
  %7 = getelementptr inbounds nuw %struct.tmpi_comm_, ptr %6, i32 0, i32 0
  %8 = getelementptr inbounds nuw %struct.tmpi_group_, ptr %7, i32 0, i32 0
  %9 = load i32, ptr %8, align 8, !tbaa !8
  %10 = icmp eq i32 %9, 0
  br i1 %10, label %11, label %12

11:                                               ; preds = %5, %0
  store i32 1, ptr %1, align 4
  br label %17

12:                                               ; preds = %5
  call void @llvm.memcpy.p0.p0.i64(ptr align 8 %2, ptr align 8 @id_key, i64 72, i1 false), !tbaa.struct !29
  %13 = call noundef ptr @_Z23tMPI_Thread_getspecific17tMPI_Thread_key_t(ptr noundef byval(%struct.tMPI_Thread_key_t) align 8 %2)
  %14 = load ptr, ptr @threads, align 8, !tbaa !34
  %15 = icmp eq ptr %13, %14
  %16 = zext i1 %15 to i32
  store i32 %16, ptr %1, align 4
  br label %17

17:                                               ; preds = %12, %11
  %18 = load i32, ptr %1, align 4
  ret i32 %18
}

; Function Attrs: mustprogress uwtable
define noundef i32 @_Z10tMPI_AbortP10tmpi_comm_i(ptr noundef %0, i32 noundef %1) #0 {
  %3 = alloca ptr, align 8
  %4 = alloca i32, align 4
  %5 = alloca ptr, align 8
  %6 = alloca %struct.tMPI_Thread_key_t, align 8
  store ptr %0, ptr %3, align 8, !tbaa !3
  store i32 %1, ptr %4, align 4, !tbaa !30
  %7 = call noundef i32 @_Z14tMPI_Is_masterv()
  %8 = icmp ne i32 %7, 0
  br i1 %8, label %9, label %25

9:                                                ; preds = %2
  %10 = load ptr, ptr %3, align 8, !tbaa !3
  %11 = load ptr, ptr @TMPI_COMM_WORLD, align 8, !tbaa !3
  %12 = icmp eq ptr %10, %11
  br i1 %12, label %13, label %17

13:                                               ; preds = %9
  %14 = load ptr, ptr @stderr, align 8, !tbaa !96
  %15 = load i32, ptr %4, align 4, !tbaa !30
  %16 = call i32 (ptr, ptr, ...) @fprintf(ptr noundef %14, ptr noundef @.str.1, i32 noundef %15) #11
  br label %21

17:                                               ; preds = %9
  %18 = load ptr, ptr @stderr, align 8, !tbaa !96
  %19 = load i32, ptr %4, align 4, !tbaa !30
  %20 = call i32 (ptr, ptr, ...) @fprintf(ptr noundef %18, ptr noundef @.str.2, i32 noundef %19) #11
  br label %21

21:                                               ; preds = %17, %13
  %22 = load ptr, ptr @stderr, align 8, !tbaa !96
  %23 = call i32 @fflush(ptr noundef %22)
  %24 = load i32, ptr %4, align 4, !tbaa !30
  call void @exit(i32 noundef %24) #13
  unreachable

25:                                               ; preds = %2
  call void @llvm.lifetime.start.p0(i64 8, ptr %5) #11
  %26 = load ptr, ptr @stderr, align 8, !tbaa !96
  %27 = load i32, ptr %4, align 4, !tbaa !30
  call void @llvm.memcpy.p0.p0.i64(ptr align 8 %6, ptr align 8 @id_key, i64 72, i1 false), !tbaa.struct !29
  %28 = call noundef ptr @_Z23tMPI_Thread_getspecific17tMPI_Thread_key_t(ptr noundef byval(%struct.tMPI_Thread_key_t) align 8 %6)
  %29 = load ptr, ptr @threads, align 8, !tbaa !34
  %30 = ptrtoint ptr %28 to i64
  %31 = ptrtoint ptr %29 to i64
  %32 = sub i64 %30, %31
  %33 = sdiv exact i64 %32, 424
  %34 = trunc i64 %33 to i32
  %35 = call i32 (ptr, ptr, ...) @fprintf(ptr noundef %26, ptr noundef @.str.3, i32 noundef %27, i32 noundef %34) #11
  %36 = load ptr, ptr @stderr, align 8, !tbaa !96
  %37 = call i32 @fflush(ptr noundef %36)
  %38 = call noalias ptr @malloc(i64 noundef 4) #14
  store ptr %38, ptr %5, align 8, !tbaa !51
  %39 = load ptr, ptr %5, align 8, !tbaa !51
  call void @_Z16tMPI_Thread_exitPv(ptr noundef %39)
  call void @llvm.lifetime.end.p0(i64 8, ptr %5) #11
  br label %40

40:                                               ; preds = %25
  ret i32 0
}