; Function Attrs: mustprogress uwtable
define noundef i32 @_Z10tMPI_AbortP10tmpi_comm_i(ptr noundef readnone %0, i32 noundef %1) local_unnamed_addr #0 {
  %3 = load ptr, ptr @TMPI_COMM_WORLD, align 8, !tbaa !3
  %.not.i = icmp eq ptr %3, null
  br i1 %.not.i, label %_Z14tMPI_Is_masterv.exit.thread, label %4

4:                                                ; preds = %2
  %5 = load i32, ptr %3, align 8, !tbaa !8
  %6 = icmp eq i32 %5, 0
  br i1 %6, label %_Z14tMPI_Is_masterv.exit.thread, label %_Z14tMPI_Is_masterv.exit

_Z14tMPI_Is_masterv.exit:                         ; preds = %4
  %7 = tail call noundef ptr @_Z23tMPI_Thread_getspecific17tMPI_Thread_key_t(ptr noundef nonnull byval(%struct.tMPI_Thread_key_t) align 8 @id_key)
  %8 = load ptr, ptr @threads, align 8, !tbaa !29
  %.not = icmp eq ptr %7, %8
  br i1 %.not, label %_Z14tMPI_Is_masterv.exit._Z14tMPI_Is_masterv.exit.thread_crit_edge, label %15

_Z14tMPI_Is_masterv.exit._Z14tMPI_Is_masterv.exit.thread_crit_edge: ; preds = %_Z14tMPI_Is_masterv.exit
  %.pre = load ptr, ptr @TMPI_COMM_WORLD, align 8, !tbaa !3
  br label %_Z14tMPI_Is_masterv.exit.thread

_Z14tMPI_Is_masterv.exit.thread:                  ; preds = %_Z14tMPI_Is_masterv.exit._Z14tMPI_Is_masterv.exit.thread_crit_edge, %2, %4
  %9 = phi ptr [ %.pre, %_Z14tMPI_Is_masterv.exit._Z14tMPI_Is_masterv.exit.thread_crit_edge ], [ null, %2 ], [ %3, %4 ]
  %10 = icmp eq ptr %0, %9
  %11 = load ptr, ptr @stderr, align 8, !tbaa !87
  %.str.1..str.2 = select i1 %10, ptr @.str.1, ptr @.str.2
  %12 = tail call i32 (ptr, ptr, ...) @fprintf(ptr noundef %11, ptr noundef nonnull %.str.1..str.2, i32 noundef %1) #19
  %13 = load ptr, ptr @stderr, align 8, !tbaa !87
  %14 = tail call i32 @fflush(ptr noundef %13)
  tail call void @exit(i32 noundef %1) #20
  unreachable

15:                                               ; preds = %_Z14tMPI_Is_masterv.exit
  %16 = load ptr, ptr @stderr, align 8, !tbaa !87
  %17 = tail call noundef ptr @_Z23tMPI_Thread_getspecific17tMPI_Thread_key_t(ptr noundef nonnull byval(%struct.tMPI_Thread_key_t) align 8 @id_key)
  %18 = load ptr, ptr @threads, align 8, !tbaa !29
  %19 = ptrtoint ptr %17 to i64
  %20 = ptrtoint ptr %18 to i64
  %21 = sub i64 %19, %20
  %22 = sdiv exact i64 %21, 424
  %23 = trunc i64 %22 to i32
  %24 = tail call i32 (ptr, ptr, ...) @fprintf(ptr noundef %16, ptr noundef nonnull @.str.3, i32 noundef %1, i32 noundef %23) #19
  %25 = load ptr, ptr @stderr, align 8, !tbaa !87
  %26 = tail call i32 @fflush(ptr noundef %25)
  %27 = tail call noalias dereferenceable_or_null(4) ptr @malloc(i64 noundef 4) #21
  tail call void @_Z16tMPI_Thread_exitPv(ptr noundef %27)
  ret i32 0
}